; Function Attrs: mustprogress nofree norecurse nosync nounwind willreturn memory(read, inaccessiblemem: none) uwtable
define hidden noundef zeroext i1 @_ZNK7datalog4rule10is_in_tailEPK9func_declb(ptr nocapture noundef nonnull readonly align 8 dereferenceable(80) %this, ptr noundef readnone %p, i1 noundef zeroext %only_positive) local_unnamed_addr #8 align 2 {
entry:
  %m_positive_cnt.i = getelementptr inbounds i8, ptr %this, i64 64
  %0 = load i32, ptr %m_positive_cnt.i, align 8
  %m_uninterp_cnt.i = getelementptr inbounds i8, ptr %this, i64 68
  %1 = load i32, ptr %m_uninterp_cnt.i, align 4
  %cond = select i1 %only_positive, i32 %0, i32 %1
  %m_tail.i = getelementptr inbounds i8, ptr %this, i64 80
  %cmp3.not = icmp eq i32 %cond, 0
  br i1 %cmp3.not, label %return, label %for.body.preheader

for.body.preheader:                               ; preds = %entry
  %2 = zext i32 %cond to i64
  %3 = load ptr, ptr %m_tail.i, align 8
  %4 = ptrtoint ptr %3 to i64
  %and.i8 = and i64 %4, -8
  %5 = inttoptr i64 %and.i8 to ptr
  %m_decl.i9 = getelementptr inbounds i8, ptr %5, i64 16
  %6 = load ptr, ptr %m_decl.i9, align 8
  %cmp510 = icmp eq ptr %6, %p
  br i1 %cmp510, label %return, label %for.cond

for.cond:                                         ; preds = %for.body.preheader, %for.body
  %indvars.iv11 = phi i64 [ %indvars.iv.next, %for.body ], [ 0, %for.body.preheader ]
  %indvars.iv.next = add nuw nsw i64 %indvars.iv11, 1
  %exitcond.not = icmp eq i64 %indvars.iv.next, %2
  br i1 %exitcond.not, label %return.loopexit, label %for.body, !llvm.loop !101

for.body:                                         ; preds = %for.cond
  %arrayidx.i = getelementptr inbounds [0 x ptr], ptr %m_tail.i, i64 0, i64 %indvars.iv.next
  %7 = load ptr, ptr %arrayidx.i, align 8
  %8 = ptrtoint ptr %7 to i64
  %and.i = and i64 %8, -8
  %9 = inttoptr i64 %and.i to ptr
  %m_decl.i = getelementptr inbounds i8, ptr %9, i64 16
  %10 = load ptr, ptr %m_decl.i, align 8
  %cmp5 = icmp eq ptr %10, %p
  br i1 %cmp5, label %return.loopexit, label %for.cond, !llvm.loop !101

return.loopexit:                                  ; preds = %for.body, %for.cond
  %cmp.le = icmp ult i64 %indvars.iv.next, %2
  br label %return

return:                                           ; preds = %return.loopexit, %for.body.preheader, %entry
  %cmp.lcssa = phi i1 [ false, %entry ], [ true, %for.body.preheader ], [ %cmp.le, %return.loopexit ]
  ret i1 %cmp.lcssa
}